target datalayout = "e-m:e-p270:32:32-p271:32:32-p272:64:64-i64:64-i128:128-f80:128-n8:16:32:64-S128"
target triple = "x86_64-unknown-linux-gnu"

%"class.std::__cxx11::basic_string" = type { %"struct.std::__cxx11::basic_string<char>::_Alloc_hider", i64, %union.anon }
%"struct.std::__cxx11::basic_string<char>::_Alloc_hider" = type { ptr }
%union.anon = type { i64, [8 x i8] }
%"struct.std::_Rb_tree_header" = type { %"struct.std::_Rb_tree_node_base", i64 }
%"struct.std::_Rb_tree_node_base" = type { i32, ptr, ptr, ptr }
%"class.std::shared_ptr.18" = type { %"class.std::__shared_ptr.19" }
%"class.std::__shared_ptr.19" = type { ptr, %"class.std::__shared_count" }
%"class.std::__shared_count" = type { ptr }
%"class.rocksdb::CompactionJob" = type { ptr, ptr, %"struct.rocksdb::InternalStats::CompactionStatsFull", ptr, %"struct.rocksdb::MutableDBOptions", ptr, ptr, ptr, i8, i32, %"class.rocksdb::IOStatus", ptr, i32, ptr, %"class.std::__cxx11::basic_string", %"class.std::__cxx11::basic_string", %"struct.rocksdb::FileOptions", ptr, %"class.std::shared_ptr.15", %"class.rocksdb::FileSystemPtr", %"struct.rocksdb::FileOptions", ptr, ptr, ptr, ptr, ptr, ptr, ptr, %"class.std::vector.3", i64, ptr, ptr, %"class.std::shared_ptr", ptr, i8, i8, %"class.std::vector.24", i32, %"class.std::__cxx11::basic_string", %"class.std::__cxx11::basic_string", ptr, i32, ptr, ptr, %"class.rocksdb::SeqnoToTimeMapping", i64, i64 }
%"struct.rocksdb::InternalStats::CompactionStatsFull" = type { %"struct.rocksdb::InternalStats::CompactionStats", i8, [7 x i8], %"struct.rocksdb::InternalStats::CompactionStats" }
%"struct.rocksdb::InternalStats::CompactionStats" = type <{ i64, i64, i64, i64, i64, i64, i64, i64, i32, i32, i32, i32, i64, i64, i64, i32, [20 x i32], [4 x i8] }>
%"struct.rocksdb::MutableDBOptions" = type { i32, i32, i32, i8, i64, i64, i64, i64, i32, i32, i64, i32, i64, i64, i8, i64, i32, %"class.std::__cxx11::basic_string" }
%"class.rocksdb::IOStatus" = type { %"class.rocksdb::Status" }
%"class.rocksdb::Status" = type { i8, i8, i8, i8, i8, i8, %"class.std::unique_ptr" }
%"class.std::unique_ptr" = type { %"struct.std::__uniq_ptr_data" }
%"struct.std::__uniq_ptr_data" = type { %"class.std::__uniq_ptr_impl" }
%"class.std::__uniq_ptr_impl" = type { %"class.std::tuple" }
%"class.std::tuple" = type { %"struct.std::_Tuple_impl" }
%"struct.std::_Tuple_impl" = type { %"struct.std::_Head_base.9" }
%"struct.std::_Head_base.9" = type { ptr }
%"class.std::shared_ptr.15" = type { %"class.std::__shared_ptr.16" }
%"class.std::__shared_ptr.16" = type { ptr, %"class.std::__shared_count" }
%"class.rocksdb::FileSystemPtr" = type { %"class.std::shared_ptr.18", %"class.std::shared_ptr.15", %"class.std::shared_ptr.21" }
%"class.std::shared_ptr.21" = type { %"class.std::__shared_ptr.22" }
%"class.std::__shared_ptr.22" = type { ptr, %"class.std::__shared_count" }
%"struct.rocksdb::FileOptions" = type <{ %"struct.rocksdb::EnvOptions", %"struct.rocksdb::IOOptions", i8, i8, [6 x i8] }>
%"struct.rocksdb::EnvOptions" = type { i8, i8, i8, i8, i8, i8, i64, i8, i8, i64, i64, i64, ptr }
%"struct.rocksdb::IOOptions" = type <{ %"class.std::chrono::duration", i8, [3 x i8], i32, i8, [7 x i8], %"class.std::unordered_map", i8, i8, i8, [5 x i8] }>
%"class.std::chrono::duration" = type { i64 }
%"class.std::unordered_map" = type { %"class.std::_Hashtable" }
%"class.std::_Hashtable" = type { ptr, i64, %"struct.std::__detail::_Hash_node_base", i64, %"struct.std::__detail::_Prime_rehash_policy", ptr }
%"struct.std::__detail::_Hash_node_base" = type { ptr }
%"struct.std::__detail::_Prime_rehash_policy" = type { float, i64 }
%"class.std::vector.3" = type { %"struct.std::_Vector_base.4" }
%"struct.std::_Vector_base.4" = type { %"struct.std::_Vector_base<unsigned long, std::allocator<unsigned long>>::_Vector_impl" }
%"struct.std::_Vector_base<unsigned long, std::allocator<unsigned long>>::_Vector_impl" = type { %"struct.std::_Vector_base<unsigned long, std::allocator<unsigned long>>::_Vector_impl_data" }
%"struct.std::_Vector_base<unsigned long, std::allocator<unsigned long>>::_Vector_impl_data" = type { ptr, ptr, ptr }
%"class.std::shared_ptr" = type { %"class.std::__shared_ptr" }
%"class.std::__shared_ptr" = type { ptr, %"class.std::__shared_count" }
%"class.std::vector.24" = type { %"struct.std::_Vector_base.25" }
%"struct.std::_Vector_base.25" = type { %"struct.std::_Vector_base<std::__cxx11::basic_string<char>, std::allocator<std::__cxx11::basic_string<char>>>::_Vector_impl" }
%"struct.std::_Vector_base<std::__cxx11::basic_string<char>, std::allocator<std::__cxx11::basic_string<char>>>::_Vector_impl" = type { %"struct.std::_Vector_base<std::__cxx11::basic_string<char>, std::allocator<std::__cxx11::basic_string<char>>>::_Vector_impl_data" }
%"struct.std::_Vector_base<std::__cxx11::basic_string<char>, std::allocator<std::__cxx11::basic_string<char>>>::_Vector_impl_data" = type { ptr, ptr, ptr }
%"class.rocksdb::SeqnoToTimeMapping" = type <{ i64, i64, %"class.std::deque", i8, [7 x i8] }>
%"class.std::deque" = type { %"class.std::_Deque_base" }
%"class.std::_Deque_base" = type { %"struct.std::_Deque_base<rocksdb::SeqnoToTimeMapping::SeqnoTimePair, std::allocator<rocksdb::SeqnoToTimeMapping::SeqnoTimePair>>::_Deque_impl" }
%"struct.std::_Deque_base<rocksdb::SeqnoToTimeMapping::SeqnoTimePair, std::allocator<rocksdb::SeqnoToTimeMapping::SeqnoTimePair>>::_Deque_impl" = type { %"struct.std::_Deque_base<rocksdb::SeqnoToTimeMapping::SeqnoTimePair, std::allocator<rocksdb::SeqnoToTimeMapping::SeqnoTimePair>>::_Deque_impl_data" }
%"struct.std::_Deque_base<rocksdb::SeqnoToTimeMapping::SeqnoTimePair, std::allocator<rocksdb::SeqnoToTimeMapping::SeqnoTimePair>>::_Deque_impl_data" = type { ptr, i64, %"struct.std::_Deque_iterator", %"struct.std::_Deque_iterator" }
%"struct.std::_Deque_iterator" = type { ptr, ptr, ptr, ptr }
%"struct.std::atomic.224" = type { %"struct.std::__atomic_base.225" }
%"struct.std::__atomic_base.225" = type { i64 }
%"struct.std::atomic.185" = type { %"struct.std::__atomic_base.186" }
%"struct.std::__atomic_base.186" = type { i32 }
%"class.rocksdb::VersionSet" = type { ptr, %"class.rocksdb::WalSet", %"class.std::unique_ptr.442", ptr, ptr, %"class.rocksdb::FileSystemPtr", ptr, %"class.std::__cxx11::basic_string", %"class.std::__cxx11::basic_string", ptr, %"struct.std::atomic.224", %"struct.std::atomic.224", i64, i64, i64, i64, %"struct.std::atomic.224", i64, %"struct.std::atomic.224", %"struct.std::atomic.224", i64, %"class.std::unique_ptr.450", i64, %"class.std::deque.458", i64, %"class.std::vector.464", %"class.std::vector.469", %"class.std::vector.24", %"struct.rocksdb::FileOptions", ptr, %"class.rocksdb::IOStatus", %"class.std::shared_ptr.15", %"class.std::__cxx11::basic_string", %"struct.rocksdb::OffpeakTimeOption", ptr }
%"class.rocksdb::WalSet" = type { %"class.std::map.435", i64 }
%"class.std::map.435" = type { %"class.std::_Rb_tree.436" }
%"class.std::_Rb_tree.436" = type { %"struct.std::_Rb_tree<unsigned long, std::pair<const unsigned long, rocksdb::WalMetadata>, std::_Select1st<std::pair<const unsigned long, rocksdb::WalMetadata>>, std::less<unsigned long>>::_Rb_tree_impl" }
%"struct.std::_Rb_tree<unsigned long, std::pair<const unsigned long, rocksdb::WalMetadata>, std::_Select1st<std::pair<const unsigned long, rocksdb::WalMetadata>>, std::less<unsigned long>>::_Rb_tree_impl" = type { %"struct.std::_Rb_tree_key_compare.440", %"struct.std::_Rb_tree_header" }
%"struct.std::_Rb_tree_key_compare.440" = type { %"struct.std::less.441" }
%"struct.std::less.441" = type { i8 }
%"class.std::unique_ptr.442" = type { %"struct.std::__uniq_ptr_data.443" }
%"struct.std::__uniq_ptr_data.443" = type { %"class.std::__uniq_ptr_impl.444" }
%"class.std::__uniq_ptr_impl.444" = type { %"class.std::tuple.445" }
%"class.std::tuple.445" = type { %"struct.std::_Tuple_impl.446" }
%"struct.std::_Tuple_impl.446" = type { %"struct.std::_Head_base.449" }
%"struct.std::_Head_base.449" = type { ptr }
%"class.std::unique_ptr.450" = type { %"struct.std::__uniq_ptr_data.451" }
%"struct.std::__uniq_ptr_data.451" = type { %"class.std::__uniq_ptr_impl.452" }
%"class.std::__uniq_ptr_impl.452" = type { %"class.std::tuple.453" }
%"class.std::tuple.453" = type { %"struct.std::_Tuple_impl.454" }
%"struct.std::_Tuple_impl.454" = type { %"struct.std::_Head_base.457" }
%"struct.std::_Head_base.457" = type { ptr }
%"class.std::deque.458" = type { %"class.std::_Deque_base.459" }
%"class.std::_Deque_base.459" = type { %"struct.std::_Deque_base<rocksdb::VersionSet::ManifestWriter *, std::allocator<rocksdb::VersionSet::ManifestWriter *>>::_Deque_impl" }
%"struct.std::_Deque_base<rocksdb::VersionSet::ManifestWriter *, std::allocator<rocksdb::VersionSet::ManifestWriter *>>::_Deque_impl" = type { %"struct.std::_Deque_base<rocksdb::VersionSet::ManifestWriter *, std::allocator<rocksdb::VersionSet::ManifestWriter *>>::_Deque_impl_data" }
%"struct.std::_Deque_base<rocksdb::VersionSet::ManifestWriter *, std::allocator<rocksdb::VersionSet::ManifestWriter *>>::_Deque_impl_data" = type { ptr, i64, %"struct.std::_Deque_iterator.463", %"struct.std::_Deque_iterator.463" }
%"struct.std::_Deque_iterator.463" = type { ptr, ptr, ptr, ptr }
%"class.std::vector.464" = type { %"struct.std::_Vector_base.465" }
%"struct.std::_Vector_base.465" = type { %"struct.std::_Vector_base<rocksdb::ObsoleteFileInfo, std::allocator<rocksdb::ObsoleteFileInfo>>::_Vector_impl" }
%"struct.std::_Vector_base<rocksdb::ObsoleteFileInfo, std::allocator<rocksdb::ObsoleteFileInfo>>::_Vector_impl" = type { %"struct.std::_Vector_base<rocksdb::ObsoleteFileInfo, std::allocator<rocksdb::ObsoleteFileInfo>>::_Vector_impl_data" }
%"struct.std::_Vector_base<rocksdb::ObsoleteFileInfo, std::allocator<rocksdb::ObsoleteFileInfo>>::_Vector_impl_data" = type { ptr, ptr, ptr }
%"class.std::vector.469" = type { %"struct.std::_Vector_base.470" }
%"struct.std::_Vector_base.470" = type { %"struct.std::_Vector_base<rocksdb::ObsoleteBlobFileInfo, std::allocator<rocksdb::ObsoleteBlobFileInfo>>::_Vector_impl" }
%"struct.std::_Vector_base<rocksdb::ObsoleteBlobFileInfo, std::allocator<rocksdb::ObsoleteBlobFileInfo>>::_Vector_impl" = type { %"struct.std::_Vector_base<rocksdb::ObsoleteBlobFileInfo, std::allocator<rocksdb::ObsoleteBlobFileInfo>>::_Vector_impl_data" }
%"struct.std::_Vector_base<rocksdb::ObsoleteBlobFileInfo, std::allocator<rocksdb::ObsoleteBlobFileInfo>>::_Vector_impl_data" = type { ptr, ptr, ptr }
%"struct.rocksdb::OffpeakTimeOption" = type { %"class.std::__cxx11::basic_string", i32, i32 }
%"class.rocksdb::ColumnFamilySet" = type { %"class.std::unordered_map.387", %"class.std::unordered_map.401", %"class.std::unordered_map.421", %"class.std::unordered_map.421", i32, [4 x i8], %"struct.rocksdb::FileOptions", ptr, ptr, %"class.std::__cxx11::basic_string", ptr, ptr, ptr, ptr, ptr, %"class.std::shared_ptr.15", ptr, %"class.std::__cxx11::basic_string" }
%"class.std::unordered_map.387" = type { %"class.std::_Hashtable.388" }
%"class.std::_Hashtable.388" = type { ptr, i64, %"struct.std::__detail::_Hash_node_base", i64, %"struct.std::__detail::_Prime_rehash_policy", ptr }
%"class.std::unordered_map.401" = type { %"class.std::_Hashtable.402" }
%"class.std::_Hashtable.402" = type { ptr, i64, %"struct.std::__detail::_Hash_node_base", i64, %"struct.std::__detail::_Prime_rehash_policy", ptr }
%"class.std::unordered_map.421" = type { %"class.std::_Hashtable.422" }
%"class.std::_Hashtable.422" = type { ptr, i64, %"struct.std::__detail::_Hash_node_base", i64, %"struct.std::__detail::_Prime_rehash_policy", ptr }
%"class.rocksdb::WriteController" = type { %"struct.std::atomic.185", %"struct.std::atomic.185", %"struct.std::atomic.185", i64, i64, i64, i64, %"class.std::unique_ptr.379" }
%"class.std::unique_ptr.379" = type { %"struct.std::__uniq_ptr_data.380" }
%"struct.std::__uniq_ptr_data.380" = type { %"class.std::__uniq_ptr_impl.381" }
%"class.std::__uniq_ptr_impl.381" = type { %"class.std::tuple.382" }
%"class.std::tuple.382" = type { %"struct.std::_Tuple_impl.383" }
%"struct.std::_Tuple_impl.383" = type { %"struct.std::_Head_base.386" }
%"struct.std::_Head_base.386" = type { ptr }

; Function Attrs: mustprogress nounwind uwtable
define linkonce_odr noundef nonnull align 8 dereferenceable(8) ptr @_ZNSt10_Head_baseILm0EPN7rocksdb15ColumnFamilySetELb0EE7_M_headERKS3_(ptr noundef nonnull align 8 dereferenceable(8) %__b) #1 comdat align 2 {
entry:
  %__b.addr = alloca ptr, align 8
  store ptr %__b, ptr %__b.addr, align 8
  %0 = load ptr, ptr %__b.addr, align 8
  %_M_head_impl = getelementptr inbounds %"struct.std::_Head_base.449", ptr %0, i32 0, i32 0
  ret ptr %_M_head_impl
}

; Function Attrs: mustprogress nounwind uwtable
define linkonce_odr noundef nonnull align 8 dereferenceable(8) ptr @_ZNSt11_Tuple_implILm0EJPN7rocksdb15ColumnFamilySetESt14default_deleteIS1_EEE7_M_headERKS5_(ptr noundef nonnull align 8 dereferenceable(8) %__t) #1 comdat align 2 {
entry:
  %__t.addr = alloca ptr, align 8
  store ptr %__t, ptr %__t.addr, align 8
  %0 = load ptr, ptr %__t.addr, align 8
  %call = call noundef nonnull align 8 dereferenceable(8) ptr @_ZNSt10_Head_baseILm0EPN7rocksdb15ColumnFamilySetELb0EE7_M_headERKS3_(ptr noundef nonnull align 8 dereferenceable(8) %0) #3
  ret ptr %call
}

; Function Attrs: mustprogress nounwind uwtable
define linkonce_odr noundef nonnull align 8 dereferenceable(8) ptr @_ZSt12__get_helperILm0EPN7rocksdb15ColumnFamilySetEJSt14default_deleteIS1_EEERKT0_RKSt11_Tuple_implIXT_EJS5_DpT1_EE(ptr noundef nonnull align 8 dereferenceable(8) %__t) #1 comdat {
entry:
  %__t.addr = alloca ptr, align 8
  store ptr %__t, ptr %__t.addr, align 8
  %0 = load ptr, ptr %__t.addr, align 8
  %call = call noundef nonnull align 8 dereferenceable(8) ptr @_ZNSt11_Tuple_implILm0EJPN7rocksdb15ColumnFamilySetESt14default_deleteIS1_EEE7_M_headERKS5_(ptr noundef nonnull align 8 dereferenceable(8) %0) #3
  ret ptr %call
}

; Function Attrs: mustprogress nounwind uwtable
define linkonce_odr noundef nonnull align 8 dereferenceable(8) ptr @_ZSt3getILm0EJPN7rocksdb15ColumnFamilySetESt14default_deleteIS1_EEERKNSt13tuple_elementIXT_ESt5tupleIJDpT0_EEE4typeERKS9_(ptr noundef nonnull align 8 dereferenceable(8) %__t) #1 comdat {
entry:
  %__t.addr = alloca ptr, align 8
  store ptr %__t, ptr %__t.addr, align 8
  %0 = load ptr, ptr %__t.addr, align 8
  %call = call noundef nonnull align 8 dereferenceable(8) ptr @_ZSt12__get_helperILm0EPN7rocksdb15ColumnFamilySetEJSt14default_deleteIS1_EEERKT0_RKSt11_Tuple_implIXT_EJS5_DpT1_EE(ptr noundef nonnull align 8 dereferenceable(8) %0) #3
  ret ptr %call
}

; Function Attrs: mustprogress nounwind uwtable
define linkonce_odr noundef ptr @_ZNKSt15__uniq_ptr_implIN7rocksdb15ColumnFamilySetESt14default_deleteIS1_EE6_M_ptrEv(ptr noundef nonnull align 8 dereferenceable(8) %this) #1 comdat align 2 {
entry:
  %this.addr = alloca ptr, align 8
  store ptr %this, ptr %this.addr, align 8
  %this1 = load ptr, ptr %this.addr, align 8
  %_M_t = getelementptr inbounds %"class.std::__uniq_ptr_impl.444", ptr %this1, i32 0, i32 0
  %call = call noundef nonnull align 8 dereferenceable(8) ptr @_ZSt3getILm0EJPN7rocksdb15ColumnFamilySetESt14default_deleteIS1_EEERKNSt13tuple_elementIXT_ESt5tupleIJDpT0_EEE4typeERKS9_(ptr noundef nonnull align 8 dereferenceable(8) %_M_t) #3
  %0 = load ptr, ptr %call, align 8
  ret ptr %0
}

; Function Attrs: noreturn nounwind uwtable
define linkonce_odr hidden void @__clang_call_terminate(ptr noundef %0) #8 comdat {
  %2 = call ptr @__cxa_begin_catch(ptr %0) #3
  call void @_ZSt9terminatev() #18
  unreachable
}

; Function Attrs: mustprogress nounwind uwtable
define linkonce_odr noundef i32 @_ZStanSt12memory_orderSt23__memory_order_modifier(i32 noundef %__m, i32 noundef %__mod) #1 comdat {
entry:
  %__m.addr = alloca i32, align 4
  %__mod.addr = alloca i32, align 4
  store i32 %__m, ptr %__m.addr, align 4
  store i32 %__mod, ptr %__mod.addr, align 4
  %0 = load i32, ptr %__m.addr, align 4
  %1 = load i32, ptr %__mod.addr, align 4
  %and = and i32 %0, %1
  ret i32 %and
}

; Function Attrs: mustprogress nounwind uwtable
define linkonce_odr noundef ptr @_ZNKSt10unique_ptrIN7rocksdb15ColumnFamilySetESt14default_deleteIS1_EE3getEv(ptr noundef nonnull align 8 dereferenceable(8) %this) #1 comdat align 2 {
entry:
  %this.addr = alloca ptr, align 8
  store ptr %this, ptr %this.addr, align 8
  %this1 = load ptr, ptr %this.addr, align 8
  %_M_t = getelementptr inbounds %"class.std::unique_ptr.442", ptr %this1, i32 0, i32 0
  %call = call noundef ptr @_ZNKSt15__uniq_ptr_implIN7rocksdb15ColumnFamilySetESt14default_deleteIS1_EE6_M_ptrEv(ptr noundef nonnull align 8 dereferenceable(8) %_M_t) #3
  ret ptr %call
}

; Function Attrs: mustprogress nounwind uwtable
define linkonce_odr noundef zeroext i1 @_ZNK7rocksdb15WriteController10NeedsDelayEv(ptr noundef nonnull align 8 dereferenceable(56) %this) #1 comdat align 2 personality ptr @__gxx_personality_v0 {
entry:
  %this.addr.i = alloca ptr, align 8
  %__m.addr.i = alloca i32, align 4
  %__b.i = alloca i32, align 4
  %atomic-temp.i = alloca i32, align 4
  %this.addr = alloca ptr, align 8
  store ptr %this, ptr %this.addr, align 8
  %this1 = load ptr, ptr %this.addr, align 8
  %total_delayed_ = getelementptr inbounds %"class.rocksdb::WriteController", ptr %this1, i32 0, i32 1
  store ptr %total_delayed_, ptr %this.addr.i, align 8
  store i32 5, ptr %__m.addr.i, align 4
  %this1.i = load ptr, ptr %this.addr.i, align 8
  %0 = load i32, ptr %__m.addr.i, align 4
  %call.i = invoke noundef i32 @_ZStanSt12memory_orderSt23__memory_order_modifier(i32 noundef %0, i32 noundef 65535)
          to label %invoke.cont.i unwind label %terminate.lpad.i

invoke.cont.i:                                    ; preds = %entry
  store i32 %call.i, ptr %__b.i, align 4
  %1 = load i32, ptr %__m.addr.i, align 4
  switch i32 %1, label %monotonic.i [
    i32 1, label %acquire.i
    i32 2, label %acquire.i
    i32 5, label %seqcst.i
  ]

monotonic.i:                                      ; preds = %invoke.cont.i
  %2 = load atomic i32, ptr %this1.i monotonic, align 4
  store i32 %2, ptr %atomic-temp.i, align 4
  br label %_ZNKSt13__atomic_baseIiE4loadESt12memory_order.exit

acquire.i:                                        ; preds = %invoke.cont.i, %invoke.cont.i
  %3 = load atomic i32, ptr %this1.i acquire, align 4
  store i32 %3, ptr %atomic-temp.i, align 4
  br label %_ZNKSt13__atomic_baseIiE4loadESt12memory_order.exit

seqcst.i:                                         ; preds = %invoke.cont.i
  %4 = load atomic i32, ptr %this1.i seq_cst, align 4
  store i32 %4, ptr %atomic-temp.i, align 4
  br label %_ZNKSt13__atomic_baseIiE4loadESt12memory_order.exit

terminate.lpad.i:                                 ; preds = %entry
  %5 = landingpad { ptr, i32 }
          catch ptr null
  %6 = extractvalue { ptr, i32 } %5, 0
  call void @__clang_call_terminate(ptr %6) #18
  unreachable

_ZNKSt13__atomic_baseIiE4loadESt12memory_order.exit: ; preds = %seqcst.i, %acquire.i, %monotonic.i
  %7 = load i32, ptr %atomic-temp.i, align 4
  %cmp = icmp sgt i32 %7, 0
  ret i1 %cmp
}

; Function Attrs: mustprogress nounwind uwtable
define linkonce_odr noundef ptr @_ZN7rocksdb15ColumnFamilySet16write_controllerEv(ptr noundef nonnull align 8 dereferenceable(528) %this) #1 comdat align 2 {
entry:
  %this.addr = alloca ptr, align 8
  store ptr %this, ptr %this.addr, align 8
  %this1 = load ptr, ptr %this.addr, align 8
  %write_controller_ = getelementptr inbounds %"class.rocksdb::ColumnFamilySet", ptr %this1, i32 0, i32 13
  %0 = load ptr, ptr %write_controller_, align 8
  ret ptr %0
}

; Function Attrs: mustprogress nounwind uwtable
define linkonce_odr noundef ptr @_ZN7rocksdb10VersionSet18GetColumnFamilySetEv(ptr noundef nonnull align 8 dereferenceable(752) %this) #1 comdat align 2 {
entry:
  %this.addr = alloca ptr, align 8
  store ptr %this, ptr %this.addr, align 8
  %this1 = load ptr, ptr %this.addr, align 8
  %column_family_set_ = getelementptr inbounds %"class.rocksdb::VersionSet", ptr %this1, i32 0, i32 2
  %call = call noundef ptr @_ZNKSt10unique_ptrIN7rocksdb15ColumnFamilySetESt14default_deleteIS1_EE3getEv(ptr noundef nonnull align 8 dereferenceable(8) %column_family_set_) #3
  ret ptr %call
}

; Function Attrs: mustprogress uwtable
define noundef i32 @_ZN7rocksdb13CompactionJob22GetRateLimiterPriorityEv(ptr noundef nonnull align 8 dereferenceable(1456) %this) #0 align 2 {
entry:
  %retval = alloca i32, align 4
  %this.addr = alloca ptr, align 8
  %write_controller = alloca ptr, align 8
  store ptr %this, ptr %this.addr, align 8
  %this1 = load ptr, ptr %this.addr, align 8
  %versions_ = getelementptr inbounds %"class.rocksdb::CompactionJob", ptr %this1, i32 0, i32 21
  %0 = load ptr, ptr %versions_, align 8
  %tobool = icmp ne ptr %0, null
  br i1 %tobool, label %land.lhs.true, label %if.end15

land.lhs.true:                                    ; preds = %entry
  %versions_2 = getelementptr inbounds %"class.rocksdb::CompactionJob", ptr %this1, i32 0, i32 21
  %1 = load ptr, ptr %versions_2, align 8
  %call = call noundef ptr @_ZN7rocksdb10VersionSet18GetColumnFamilySetEv(ptr noundef nonnull align 8 dereferenceable(752) %1)
  %tobool3 = icmp ne ptr %call, null
  br i1 %tobool3, label %land.lhs.true4, label %if.end15

land.lhs.true4:                                   ; preds = %land.lhs.true
  %versions_5 = getelementptr inbounds %"class.rocksdb::CompactionJob", ptr %this1, i32 0, i32 21
  %2 = load ptr, ptr %versions_5, align 8
  %call6 = call noundef ptr @_ZN7rocksdb10VersionSet18GetColumnFamilySetEv(ptr noundef nonnull align 8 dereferenceable(752) %2)
  %call7 = call noundef ptr @_ZN7rocksdb15ColumnFamilySet16write_controllerEv(ptr noundef nonnull align 8 dereferenceable(528) %call6)
  %tobool8 = icmp ne ptr %call7, null
  br i1 %tobool8, label %if.then, label %if.end15

if.then:                                          ; preds = %land.lhs.true4
  %versions_9 = getelementptr inbounds %"class.rocksdb::CompactionJob", ptr %this1, i32 0, i32 21
  %3 = load ptr, ptr %versions_9, align 8
  %call10 = call noundef ptr @_ZN7rocksdb10VersionSet18GetColumnFamilySetEv(ptr noundef nonnull align 8 dereferenceable(752) %3)
  %call11 = call noundef ptr @_ZN7rocksdb15ColumnFamilySet16write_controllerEv(ptr noundef nonnull align 8 dereferenceable(528) %call10)
  store ptr %call11, ptr %write_controller, align 8
  %4 = load ptr, ptr %write_controller, align 8
  %call12 = call noundef zeroext i1 @_ZNK7rocksdb15WriteController10NeedsDelayEv(ptr noundef nonnull align 8 dereferenceable(56) %4)
  br i1 %call12, label %if.then14, label %lor.lhs.false

lor.lhs.false:                                    ; preds = %if.then
  %5 = load ptr, ptr %write_controller, align 8
  %call13 = call noundef zeroext i1 @_ZNK7rocksdb15WriteController9IsStoppedEv(ptr noundef nonnull align 8 dereferenceable(56) %5)
  br i1 %call13, label %if.then14, label %if.end

if.then14:                                        ; preds = %lor.lhs.false, %if.then
  store i32 3, ptr %retval, align 4
  br label %return

if.end:                                           ; preds = %lor.lhs.false
  br label %if.end15

if.end15:                                         ; preds = %if.end, %land.lhs.true4, %land.lhs.true, %entry
  store i32 0, ptr %retval, align 4
  br label %return

return:                                           ; preds = %if.end15, %if.then14
  %6 = load i32, ptr %retval, align 4
  ret i32 %6
}