; Function Attrs: mustprogress uwtable
define noundef i32 @_ZN7rocksdb13CompactionJob22GetRateLimiterPriorityEv(ptr nocapture noundef nonnull readonly align 8 dereferenceable(1456) %this) local_unnamed_addr #5 align 2 personality ptr @__gxx_personality_v0 {
entry:
  %versions_ = getelementptr inbounds i8, ptr %this, i64 1072
  %0 = load ptr, ptr %versions_, align 8
  %tobool.not = icmp eq ptr %0, null
  br i1 %tobool.not, label %if.end15, label %land.lhs.true

land.lhs.true:                                    ; preds = %entry
  %column_family_set_.i = getelementptr inbounds i8, ptr %0, i64 64
  %1 = load ptr, ptr %column_family_set_.i, align 8
  %tobool3.not = icmp eq ptr %1, null
  br i1 %tobool3.not, label %if.end15, label %land.lhs.true4

land.lhs.true4:                                   ; preds = %land.lhs.true
  %write_controller_.i = getelementptr inbounds i8, ptr %1, i64 456
  %2 = load ptr, ptr %write_controller_.i, align 8
  %tobool8.not = icmp eq ptr %2, null
  br i1 %tobool8.not, label %if.end15, label %if.then

if.then:                                          ; preds = %land.lhs.true4
  %total_delayed_.i = getelementptr inbounds i8, ptr %2, i64 4
  %3 = load atomic i32, ptr %total_delayed_.i seq_cst, align 4
  %cmp.i = icmp sgt i32 %3, 0
  br i1 %cmp.i, label %return, label %lor.lhs.false

lor.lhs.false:                                    ; preds = %if.then
  %call13 = tail call noundef zeroext i1 @_ZNK7rocksdb15WriteController9IsStoppedEv(ptr noundef nonnull align 8 dereferenceable(56) %2)
  br i1 %call13, label %return, label %if.end15

if.end15:                                         ; preds = %lor.lhs.false, %land.lhs.true4, %land.lhs.true, %entry
  br label %return

return:                                           ; preds = %if.then, %lor.lhs.false, %if.end15
  %retval.0 = phi i32 [ 0, %if.end15 ], [ 3, %lor.lhs.false ], [ 3, %if.then ]
  ret i32 %retval.0
}